; Function Attrs: mustprogress nofree nounwind willreturn memory(readwrite, inaccessiblemem: write) uwtable
define hidden noundef float @_ZN19OpenColorIO_v2_5dev7LogUtil14GetLinearSlopeERKSt6vectorIdSaIdEEd(ptr noundef nonnull readonly align 8 captures(none) dereferenceable(24) %0, double noundef %1) local_unnamed_addr #6 {
  %3 = getelementptr inbounds nuw i8, ptr %0, i64 8
  %4 = load ptr, ptr %3, align 8, !tbaa !20
  %5 = load ptr, ptr %0, align 8, !tbaa !13
  %6 = ptrtoint ptr %4 to i64
  %7 = ptrtoint ptr %5 to i64
  %8 = sub i64 %6, %7
  %9 = icmp ugt i64 %8, 40
  br i1 %9, label %10, label %13

10:                                               ; preds = %2
  %11 = getelementptr inbounds nuw i8, ptr %5, i64 40
  %12 = load double, ptr %11, align 8, !tbaa !16
  br label %26

13:                                               ; preds = %2
  %14 = load double, ptr %5, align 8, !tbaa !16
  %15 = getelementptr inbounds nuw i8, ptr %5, i64 16
  %16 = load double, ptr %15, align 8, !tbaa !16
  %17 = fmul double %14, %16
  %18 = getelementptr inbounds nuw i8, ptr %5, i64 32
  %19 = load double, ptr %18, align 8, !tbaa !16
  %20 = getelementptr inbounds nuw i8, ptr %5, i64 24
  %21 = load double, ptr %20, align 8, !tbaa !16
  %22 = tail call double @llvm.fmuladd.f64(double %16, double %19, double %21)
  %23 = tail call double @log(double noundef %1) #19, !tbaa !18
  %24 = fmul double %22, %23
  %25 = fdiv double %17, %24
  br label %26

26:                                               ; preds = %13, %10
  %.0.in = phi double [ %12, %10 ], [ %25, %13 ]
  %.0 = fptrunc double %.0.in to float
  ret float %.0
}